; Function Attrs: nounwind sspstrong uwtable
define internal i64 @rb_file_size_p(i64 %0, i64 noundef %1) #0 {
  %3 = alloca %struct.stat, align 8
  call void @llvm.lifetime.start.p0(i64 144, ptr nonnull %3) #22
  %4 = call fastcc i32 @rb_stat(i64 noundef %1, ptr noundef %3)
  %5 = icmp slt i32 %4, 0
  br i1 %5, label %rb_long2num_inline.exit, label %6

6:                                                ; preds = %2
  %7 = getelementptr inbounds nuw i8, ptr %3, i64 48
  %8 = load i64, ptr %7, align 8, !tbaa !75
  %9 = icmp eq i64 %8, 0
  br i1 %9, label %rb_long2num_inline.exit, label %10

10:                                               ; preds = %6
  %11 = add i64 %8, 4611686018427387904
  %or.cond.i = icmp sgt i64 %11, -1
  br i1 %or.cond.i, label %12, label %15

12:                                               ; preds = %10
  %13 = shl nsw i64 %8, 1
  %14 = or disjoint i64 %13, 1
  br label %rb_long2num_inline.exit

15:                                               ; preds = %10
  %16 = call i64 @rb_int2big(i64 noundef %8) #22
  br label %rb_long2num_inline.exit

rb_long2num_inline.exit:                          ; preds = %15, %12, %6, %2
  %.0 = phi i64 [ 4, %2 ], [ 4, %6 ], [ %14, %12 ], [ %16, %15 ]
  call void @llvm.lifetime.end.p0(i64 144, ptr nonnull %3) #22
  ret i64 %.0
}